target datalayout = "e-m:e-p270:32:32-p271:32:32-p272:64:64-i64:64-i128:128-f80:128-n8:16:32:64-S128"
target triple = "x86_64-pc-linux-gnu"

%struct.GenerationContext = type { %struct.MemoryContextData, i32, i32, i32, i32, ptr, ptr, %struct.dlist_head }
%struct.MemoryContextData = type { i32, i8, i8, i64, ptr, ptr, ptr, ptr, ptr, ptr, ptr, ptr }
%struct.dlist_head = type { %struct.dlist_node }
%struct.dlist_node = type { ptr, ptr }
%struct.GenerationBlock = type { %struct.dlist_node, ptr, i64, i32, i32, ptr, ptr }
%struct.MemoryChunk = type { i64 }

; Function Attrs: inlinehint nounwind uwtable
define internal void @MemoryChunkSetHdrMask(ptr noundef %0, ptr noundef %1, i64 noundef %2, i32 noundef %3) #5 {
  %5 = alloca ptr, align 8
  %6 = alloca ptr, align 8
  %7 = alloca i64, align 8
  %8 = alloca i32, align 4
  %9 = alloca i64, align 8
  store ptr %0, ptr %5, align 8
  store ptr %1, ptr %6, align 8
  store i64 %2, ptr %7, align 8
  store i32 %3, ptr %8, align 4
  call void @llvm.lifetime.start.p0(i64 8, ptr %9) #12
  %10 = load ptr, ptr %5, align 8
  %11 = load ptr, ptr %6, align 8
  %12 = ptrtoint ptr %10 to i64
  %13 = ptrtoint ptr %11 to i64
  %14 = sub i64 %12, %13
  store i64 %14, ptr %9, align 8
  %15 = load i64, ptr %9, align 8
  %16 = shl i64 %15, 34
  %17 = load i64, ptr %7, align 8
  %18 = shl i64 %17, 5
  %19 = or i64 %16, %18
  %20 = load i32, ptr %8, align 4
  %21 = zext i32 %20 to i64
  %22 = or i64 %19, %21
  %23 = load ptr, ptr %5, align 8
  %24 = getelementptr inbounds nuw %struct.MemoryChunk, ptr %23, i32 0, i32 0
  store i64 %22, ptr %24, align 8
  call void @llvm.lifetime.end.p0(i64 8, ptr %9) #12
  ret void
}

; Function Attrs: inlinehint nounwind uwtable
define internal ptr @GenerationAllocChunkFromBlock(ptr noundef %0, ptr noundef %1, i64 noundef %2, i64 noundef %3) #5 {
  %5 = alloca ptr, align 8
  %6 = alloca ptr, align 8
  %7 = alloca i64, align 8
  %8 = alloca i64, align 8
  %9 = alloca ptr, align 8
  store ptr %0, ptr %5, align 8
  store ptr %1, ptr %6, align 8
  store i64 %2, ptr %7, align 8
  store i64 %3, ptr %8, align 8
  call void @llvm.lifetime.start.p0(i64 8, ptr %9) #12
  %10 = load ptr, ptr %6, align 8
  %11 = getelementptr inbounds nuw %struct.GenerationBlock, ptr %10, i32 0, i32 5
  %12 = load ptr, ptr %11, align 8
  store ptr %12, ptr %9, align 8
  br label %13

13:                                               ; preds = %4
  br label %14

14:                                               ; preds = %13
  br label %15

15:                                               ; preds = %14
  %16 = load ptr, ptr %6, align 8
  %17 = getelementptr inbounds nuw %struct.GenerationBlock, ptr %16, i32 0, i32 3
  %18 = load i32, ptr %17, align 8
  %19 = add i32 %18, 1
  store i32 %19, ptr %17, align 8
  %20 = load i64, ptr %8, align 8
  %21 = add i64 8, %20
  %22 = load ptr, ptr %6, align 8
  %23 = getelementptr inbounds nuw %struct.GenerationBlock, ptr %22, i32 0, i32 5
  %24 = load ptr, ptr %23, align 8
  %25 = getelementptr inbounds nuw i8, ptr %24, i64 %21
  store ptr %25, ptr %23, align 8
  %26 = load ptr, ptr %9, align 8
  %27 = load ptr, ptr %6, align 8
  %28 = load i64, ptr %8, align 8
  call void @MemoryChunkSetHdrMask(ptr noundef %26, ptr noundef %27, i64 noundef %28, i32 noundef 4)
  br label %29

29:                                               ; preds = %15
  br label %30

30:                                               ; preds = %29
  br label %31

31:                                               ; preds = %30
  br label %32

32:                                               ; preds = %31
  br label %33

33:                                               ; preds = %32
  br label %34

34:                                               ; preds = %33
  %35 = load ptr, ptr %9, align 8
  %36 = getelementptr inbounds nuw i8, ptr %35, i64 8
  call void @llvm.lifetime.end.p0(i64 8, ptr %9) #12
  ret ptr %36
}

; Function Attrs: inlinehint nounwind uwtable
define internal i64 @GenerationBlockFreeBytes(ptr noundef %0) #5 {
  %2 = alloca ptr, align 8
  store ptr %0, ptr %2, align 8
  %3 = load ptr, ptr %2, align 8
  %4 = getelementptr inbounds nuw %struct.GenerationBlock, ptr %3, i32 0, i32 6
  %5 = load ptr, ptr %4, align 8
  %6 = load ptr, ptr %2, align 8
  %7 = getelementptr inbounds nuw %struct.GenerationBlock, ptr %6, i32 0, i32 5
  %8 = load ptr, ptr %7, align 8
  %9 = ptrtoint ptr %5 to i64
  %10 = ptrtoint ptr %8 to i64
  %11 = sub i64 %9, %10
  ret i64 %11
}

; Function Attrs: nounwind uwtable
define dso_local ptr @GenerationAlloc(ptr noundef %0, i64 noundef %1, i32 noundef %2) #0 {
  %4 = alloca ptr, align 8
  %5 = alloca ptr, align 8
  %6 = alloca i64, align 8
  %7 = alloca i32, align 4
  %8 = alloca ptr, align 8
  %9 = alloca ptr, align 8
  %10 = alloca i64, align 8
  %11 = alloca i64, align 8
  %12 = alloca i32, align 4
  %13 = alloca ptr, align 8
  store ptr %0, ptr %5, align 8
  store i64 %1, ptr %6, align 8
  store i32 %2, ptr %7, align 4
  call void @llvm.lifetime.start.p0(i64 8, ptr %8) #12
  %14 = load ptr, ptr %5, align 8
  store ptr %14, ptr %8, align 8
  call void @llvm.lifetime.start.p0(i64 8, ptr %9) #12
  call void @llvm.lifetime.start.p0(i64 8, ptr %10) #12
  call void @llvm.lifetime.start.p0(i64 8, ptr %11) #12
  %15 = load i64, ptr %6, align 8
  %16 = add i64 %15, 7
  %17 = and i64 %16, -8
  store i64 %17, ptr %10, align 8
  %18 = load i64, ptr %10, align 8
  %19 = load ptr, ptr %8, align 8
  %20 = getelementptr inbounds nuw %struct.GenerationContext, ptr %19, i32 0, i32 4
  %21 = load i32, ptr %20, align 4
  %22 = zext i32 %21 to i64
  %23 = icmp ugt i64 %18, %22
  br i1 %23, label %24, label %29

24:                                               ; preds = %3
  %25 = load ptr, ptr %5, align 8
  %26 = load i64, ptr %6, align 8
  %27 = load i32, ptr %7, align 4
  %28 = call ptr @GenerationAllocLarge(ptr noundef %25, i64 noundef %26, i32 noundef %27)
  store ptr %28, ptr %4, align 8
  store i32 1, ptr %12, align 4
  br label %80

29:                                               ; preds = %3
  %30 = load i64, ptr %10, align 8
  %31 = add i64 %30, 8
  store i64 %31, ptr %11, align 8
  %32 = load ptr, ptr %8, align 8
  %33 = getelementptr inbounds nuw %struct.GenerationContext, ptr %32, i32 0, i32 5
  %34 = load ptr, ptr %33, align 8
  store ptr %34, ptr %9, align 8
  %35 = load ptr, ptr %9, align 8
  %36 = call i64 @GenerationBlockFreeBytes(ptr noundef %35)
  %37 = load i64, ptr %11, align 8
  %38 = icmp ult i64 %36, %37
  %39 = zext i1 %38 to i32
  %40 = icmp ne i32 %39, 0
  %41 = zext i1 %40 to i32
  %42 = sext i32 %41 to i64
  %43 = call i64 @llvm.expect.i64(i64 %42, i64 0)
  %44 = icmp ne i64 %43, 0
  br i1 %44, label %45, label %74

45:                                               ; preds = %29
  call void @llvm.lifetime.start.p0(i64 8, ptr %13) #12
  %46 = load ptr, ptr %8, align 8
  %47 = getelementptr inbounds nuw %struct.GenerationContext, ptr %46, i32 0, i32 6
  %48 = load ptr, ptr %47, align 8
  store ptr %48, ptr %13, align 8
  %49 = load ptr, ptr %13, align 8
  %50 = icmp ne ptr %49, null
  br i1 %50, label %51, label %67

51:                                               ; preds = %45
  %52 = load ptr, ptr %13, align 8
  %53 = call i64 @GenerationBlockFreeBytes(ptr noundef %52)
  %54 = load i64, ptr %11, align 8
  %55 = icmp uge i64 %53, %54
  br i1 %55, label %56, label %67

56:                                               ; preds = %51
  %57 = load ptr, ptr %8, align 8
  %58 = getelementptr inbounds nuw %struct.GenerationContext, ptr %57, i32 0, i32 6
  store ptr null, ptr %58, align 8
  %59 = load ptr, ptr %13, align 8
  %60 = load ptr, ptr %8, align 8
  %61 = getelementptr inbounds nuw %struct.GenerationContext, ptr %60, i32 0, i32 5
  store ptr %59, ptr %61, align 8
  %62 = load ptr, ptr %5, align 8
  %63 = load ptr, ptr %13, align 8
  %64 = load i64, ptr %6, align 8
  %65 = load i64, ptr %10, align 8
  %66 = call ptr @GenerationAllocChunkFromBlock(ptr noundef %62, ptr noundef %63, i64 noundef %64, i64 noundef %65)
  store ptr %66, ptr %4, align 8
  store i32 1, ptr %12, align 4
  br label %73

67:                                               ; preds = %51, %45
  %68 = load ptr, ptr %5, align 8
  %69 = load i64, ptr %6, align 8
  %70 = load i32, ptr %7, align 4
  %71 = load i64, ptr %10, align 8
  %72 = call ptr @GenerationAllocFromNewBlock(ptr noundef %68, i64 noundef %69, i32 noundef %70, i64 noundef %71)
  store ptr %72, ptr %4, align 8
  store i32 1, ptr %12, align 4
  br label %73

73:                                               ; preds = %67, %56
  call void @llvm.lifetime.end.p0(i64 8, ptr %13) #12
  br label %80

74:                                               ; preds = %29
  %75 = load ptr, ptr %5, align 8
  %76 = load ptr, ptr %9, align 8
  %77 = load i64, ptr %6, align 8
  %78 = load i64, ptr %10, align 8
  %79 = call ptr @GenerationAllocChunkFromBlock(ptr noundef %75, ptr noundef %76, i64 noundef %77, i64 noundef %78)
  store ptr %79, ptr %4, align 8
  store i32 1, ptr %12, align 4
  br label %80

80:                                               ; preds = %74, %73, %24
  call void @llvm.lifetime.end.p0(i64 8, ptr %11) #12
  call void @llvm.lifetime.end.p0(i64 8, ptr %10) #12
  call void @llvm.lifetime.end.p0(i64 8, ptr %9) #12
  call void @llvm.lifetime.end.p0(i64 8, ptr %8) #12
  %81 = load ptr, ptr %4, align 8
  ret ptr %81
}