; Function Attrs: nounwind uwtable
define dso_local ptr @GenerationAlloc(ptr noundef %0, i64 noundef %1, i32 noundef %2) local_unnamed_addr #0 {
  %4 = add i64 %1, 7
  %5 = and i64 %4, -8
  %6 = getelementptr inbounds nuw i8, ptr %0, i64 92
  %7 = load i32, ptr %6, align 4
  %8 = zext i32 %7 to i64
  %9 = icmp ugt i64 %5, %8
  br i1 %9, label %10, label %12

10:                                               ; preds = %3
  %11 = tail call fastcc ptr @GenerationAllocLarge(ptr noundef nonnull %0, i64 noundef %1, i32 noundef %2)
  br label %61

12:                                               ; preds = %3
  %13 = add nuw nsw i64 %5, 8
  %14 = getelementptr inbounds nuw i8, ptr %0, i64 96
  %15 = load ptr, ptr %14, align 8
  %16 = getelementptr i8, ptr %15, i64 40
  %.val = load ptr, ptr %16, align 8
  %17 = getelementptr i8, ptr %15, i64 48
  %.val34 = load ptr, ptr %17, align 8
  %18 = ptrtoint ptr %.val34 to i64
  %19 = ptrtoint ptr %.val to i64
  %20 = sub i64 %18, %19
  %21 = icmp ult i64 %20, %13
  br i1 %21, label %22, label %48, !prof !7

22:                                               ; preds = %12
  %23 = getelementptr inbounds nuw i8, ptr %0, i64 104
  %24 = load ptr, ptr %23, align 8
  %.not = icmp eq ptr %24, null
  br i1 %.not, label %46, label %25

25:                                               ; preds = %22
  %26 = getelementptr i8, ptr %24, i64 40
  %.val35 = load ptr, ptr %26, align 8
  %27 = getelementptr i8, ptr %24, i64 48
  %.val36 = load ptr, ptr %27, align 8
  %28 = ptrtoint ptr %.val36 to i64
  %29 = ptrtoint ptr %.val35 to i64
  %30 = sub i64 %28, %29
  %.not33 = icmp ult i64 %30, %13
  br i1 %.not33, label %46, label %31

31:                                               ; preds = %25
  store ptr null, ptr %23, align 8
  store ptr %24, ptr %14, align 8
  %32 = load ptr, ptr %26, align 8
  %33 = getelementptr inbounds nuw i8, ptr %24, i64 32
  %34 = load i32, ptr %33, align 8
  %35 = add i32 %34, 1
  store i32 %35, ptr %33, align 8
  %36 = getelementptr inbounds nuw i8, ptr %32, i64 %5
  %37 = getelementptr inbounds nuw i8, ptr %36, i64 8
  store ptr %37, ptr %26, align 8
  %38 = ptrtoint ptr %32 to i64
  %39 = ptrtoint ptr %24 to i64
  %40 = sub i64 %38, %39
  %41 = shl i64 %40, 34
  %42 = shl nuw nsw i64 %5, 5
  %43 = or i64 %42, %41
  %44 = or disjoint i64 %43, 4
  store i64 %44, ptr %32, align 8
  %45 = getelementptr inbounds nuw i8, ptr %32, i64 8
  br label %61

46:                                               ; preds = %25, %22
  %47 = tail call fastcc ptr @GenerationAllocFromNewBlock(ptr noundef nonnull %0, i64 noundef %1, i32 noundef %2, i64 noundef %5)
  br label %61

48:                                               ; preds = %12
  %49 = getelementptr inbounds nuw i8, ptr %15, i64 32
  %50 = load i32, ptr %49, align 8
  %51 = add i32 %50, 1
  store i32 %51, ptr %49, align 8
  %52 = getelementptr inbounds nuw i8, ptr %.val, i64 %5
  %53 = getelementptr inbounds nuw i8, ptr %52, i64 8
  store ptr %53, ptr %16, align 8
  %54 = ptrtoint ptr %15 to i64
  %55 = sub i64 %19, %54
  %56 = shl i64 %55, 34
  %57 = shl nuw nsw i64 %5, 5
  %58 = or i64 %57, %56
  %59 = or disjoint i64 %58, 4
  store i64 %59, ptr %.val, align 8
  %60 = getelementptr inbounds nuw i8, ptr %.val, i64 8
  br label %61

61:                                               ; preds = %31, %46, %48, %10
  %.0 = phi ptr [ %11, %10 ], [ %60, %48 ], [ %45, %31 ], [ %47, %46 ]
  ret ptr %.0
}